; Function Attrs: mustprogress nofree norecurse nosync nounwind willreturn memory(argmem: write) uwtable
define void @_ZN6icu_776number9Precision14incrementExactEms(ptr dead_on_unwind noalias writable writeonly sret(%"class.icu_77::number::IncrementPrecision") align 8 captures(none) initializes((0, 4), (8, 12), (24, 28)) %0, i64 noundef %1, i16 noundef signext %2) local_unnamed_addr #11 align 2 {
  %.not = icmp eq i64 %1, 0
  br i1 %.not, label %8, label %_ZN6icu_776number9Precision18constructIncrementEms.exit

_ZN6icu_776number9Precision18constructIncrementEms.exit: ; preds = %3
  %switch.selectcmp = icmp eq i64 %1, 5
  %switch.select = select i1 %switch.selectcmp, i32 7, i32 5
  %switch.selectcmp3 = icmp eq i64 %1, 1
  %switch.select4 = select i1 %switch.selectcmp3, i32 6, i32 %switch.select
  %.sroa.9.0..sroa_idx21.i = getelementptr inbounds nuw i8, ptr %0, i64 20
  %.sroa.8.0..sroa_idx17.i = getelementptr inbounds nuw i8, ptr %0, i64 18
  %.sroa.7.0..sroa_idx13.i = getelementptr inbounds nuw i8, ptr %0, i64 16
  %4 = getelementptr inbounds nuw i8, ptr %0, i64 8
  %5 = icmp sgt i16 %2, 0
  %6 = sub i16 0, %2
  %7 = select i1 %5, i16 0, i16 %6
  store i64 %1, ptr %4, align 8, !alias.scope !24
  store i16 %2, ptr %.sroa.7.0..sroa_idx13.i, align 8, !alias.scope !24
  store i16 %7, ptr %.sroa.8.0..sroa_idx17.i, align 2, !alias.scope !24
  store i32 0, ptr %.sroa.9.0..sroa_idx21.i, align 4, !tbaa !17, !alias.scope !24
  br label %10

8:                                                ; preds = %3
  %9 = getelementptr inbounds nuw i8, ptr %0, i64 8
  store i32 65810, ptr %9, align 8, !tbaa !17
  br label %10

10:                                               ; preds = %8, %_ZN6icu_776number9Precision18constructIncrementEms.exit
  %switch.select4.sink = phi i32 [ 9, %8 ], [ %switch.select4, %_ZN6icu_776number9Precision18constructIncrementEms.exit ]
  store i32 %switch.select4.sink, ptr %0, align 8, !tbaa !27
  %11 = getelementptr inbounds nuw i8, ptr %0, i64 24
  store i32 0, ptr %11, align 8, !tbaa !31
  ret void
}